; Function Attrs: nounwind uwtable
define void @Llb_ManResultPrint(ptr noundef %0, ptr noundef readonly captures(none) %1) local_unnamed_addr #0 {
  %3 = getelementptr i8, ptr %1, i64 4
  %.val12 = load i32, ptr %3, align 4, !tbaa !10
  %4 = icmp sgt i32 %.val12, 0
  br i1 %4, label %.lr.ph, label %.critedge

.lr.ph:                                           ; preds = %2
  %5 = getelementptr i8, ptr %1, i64 8
  %6 = zext nneg i32 %.val12 to i64
  br label %7

7:                                                ; preds = %.lr.ph, %13
  %indvars.iv = phi i64 [ %6, %.lr.ph ], [ %indvars.iv.next, %13 ]
  %.01014 = phi ptr [ null, %.lr.ph ], [ %9, %13 ]
  %indvars.iv.next = add nsw i64 %indvars.iv, -1
  %.val = load ptr, ptr %5, align 8, !tbaa !9
  %8 = getelementptr inbounds nuw ptr, ptr %.val, i64 %indvars.iv.next
  %9 = load ptr, ptr %8, align 8, !tbaa !11
  %.val11 = load i32, ptr %3, align 4, !tbaa !10
  %10 = sext i32 %.val11 to i64
  %11 = icmp slt i64 %indvars.iv, %10
  br i1 %11, label %12, label %13

12:                                               ; preds = %7
  tail call void @Llb_ManCutPrint(ptr noundef %0, ptr noundef %9, ptr noundef %.01014)
  br label %13

13:                                               ; preds = %12, %7
  %14 = icmp samesign ugt i64 %indvars.iv, 1
  br i1 %14, label %7, label %.critedge, !llvm.loop !69

.critedge:                                        ; preds = %13, %2
  ret void
}